; Function Attrs: nounwind uwtable
define range(i32 -1, 1) i32 @H5VL__native_get_file_addr_len(ptr noundef %0, i32 noundef %1, ptr noundef writeonly captures(none) %2) local_unnamed_addr #0 {
  %4 = alloca ptr, align 8
  call void @llvm.lifetime.start.p0(i64 8, ptr nonnull %4) #6
  %5 = call i32 @H5VL_native_get_file_struct(ptr noundef %0, i32 noundef %1, ptr noundef nonnull %4)
  %6 = icmp slt i32 %5, 0
  br i1 %6, label %7, label %11

7:                                                ; preds = %3
  %8 = load i64, ptr @H5E_VOL_g, align 8, !tbaa !8
  %9 = load i64, ptr @H5E_CANTGET_g, align 8, !tbaa !8
  %10 = tail call i32 (ptr, ptr, i32, i64, i64, ptr, ...) @H5E_printf_stack(ptr noundef nonnull @.str, ptr noundef nonnull @__func__.H5VL__native_get_file_addr_len, i32 noundef 355, i64 noundef %8, i64 noundef %9, ptr noundef nonnull @.str.5) #6
  br label %15

11:                                               ; preds = %3
  %12 = load ptr, ptr %4, align 8, !tbaa !12
  %13 = tail call zeroext i8 @H5F_sizeof_addr(ptr noundef %12) #6
  %14 = zext i8 %13 to i64
  store i64 %14, ptr %2, align 8, !tbaa !8
  br label %15

15:                                               ; preds = %11, %7
  %.0 = phi i32 [ -1, %7 ], [ 0, %11 ]
  call void @llvm.lifetime.end.p0(i64 8, ptr nonnull %4) #6
  ret i32 %.0
}